target datalayout = "e-m:e-p270:32:32-p271:32:32-p272:64:64-i64:64-i128:128-f80:128-n8:16:32:64-S128"
target triple = "x86_64-pc-linux-gnu"

; Function Attrs: inlinehint nounwind uwtable
define internal i32 @clz64(i64 noundef %0) #3 {
  %2 = alloca i64, align 8
  store i64 %0, ptr %2, align 8, !tbaa !27
  %3 = load i64, ptr %2, align 8, !tbaa !27
  %4 = call i64 @llvm.ctlz.i64(i64 %3, i1 true)
  %5 = trunc i64 %4 to i32
  ret i32 %5
}

; Function Attrs: inlinehint nounwind uwtable
define internal i32 @clz(i64 noundef %0) #3 {
  %2 = alloca i32, align 4
  %3 = alloca i64, align 8
  store i64 %0, ptr %3, align 8, !tbaa !27
  %4 = load i64, ptr %3, align 8, !tbaa !27
  %5 = icmp eq i64 %4, 0
  br i1 %5, label %6, label %7

6:                                                ; preds = %1
  store i32 64, ptr %2, align 4
  br label %10

7:                                                ; preds = %1
  %8 = load i64, ptr %3, align 8, !tbaa !27
  %9 = call i32 @clz64(i64 noundef %8)
  store i32 %9, ptr %2, align 4
  br label %10

10:                                               ; preds = %7, %6
  %11 = load i32, ptr %2, align 4
  ret i32 %11
}

; Function Attrs: inlinehint nounwind uwtable
define internal i32 @ceil_log2(i64 noundef %0) #3 {
  %2 = alloca i32, align 4
  %3 = alloca i64, align 8
  store i64 %0, ptr %3, align 8, !tbaa !27
  %4 = load i64, ptr %3, align 8, !tbaa !27
  %5 = icmp ule i64 %4, 1
  br i1 %5, label %6, label %7

6:                                                ; preds = %1
  store i32 0, ptr %2, align 4
  br label %12

7:                                                ; preds = %1
  %8 = load i64, ptr %3, align 8, !tbaa !27
  %9 = sub i64 %8, 1
  %10 = call i32 @clz(i64 noundef %9)
  %11 = sub i32 64, %10
  store i32 %11, ptr %2, align 4
  br label %12

12:                                               ; preds = %7, %6
  %13 = load i32, ptr %2, align 4
  ret i32 %13
}

; Function Attrs: nounwind uwtable
define dso_local i64 @bf_mul_log2_radix(i64 noundef %0, i32 noundef %1, i32 noundef %2, i32 noundef %3) #0 {
  %5 = alloca i64, align 8
  %6 = alloca i32, align 4
  %7 = alloca i32, align 4
  %8 = alloca i32, align 4
  %9 = alloca i32, align 4
  %10 = alloca i64, align 8
  %11 = alloca i32, align 4
  %12 = alloca i32, align 4
  %13 = alloca ptr, align 8
  %14 = alloca i64, align 8
  %15 = alloca i64, align 8
  %16 = alloca i128, align 16
  store i64 %0, ptr %5, align 8, !tbaa !27
  store i32 %1, ptr %6, align 4, !tbaa !29
  store i32 %2, ptr %7, align 4, !tbaa !29
  store i32 %3, ptr %8, align 4, !tbaa !29
  call void @llvm.lifetime.start.p0(i64 4, ptr %9) #10
  call void @llvm.lifetime.start.p0(i64 8, ptr %10) #10
  call void @llvm.lifetime.start.p0(i64 4, ptr %11) #10
  %17 = load i32, ptr %8, align 4, !tbaa !29
  store i32 %17, ptr %11, align 4, !tbaa !29
  %18 = load i64, ptr %5, align 8, !tbaa !27
  store i64 %18, ptr %10, align 8, !tbaa !27
  %19 = load i64, ptr %5, align 8, !tbaa !27
  %20 = icmp slt i64 %19, 0
  br i1 %20, label %21, label %24

21:                                               ; preds = %4
  %22 = load i64, ptr %10, align 8, !tbaa !27
  %23 = sub i64 0, %22
  store i64 %23, ptr %10, align 8, !tbaa !27
  store i32 1, ptr %9, align 4, !tbaa !29
  br label %25

24:                                               ; preds = %4
  store i32 0, ptr %9, align 4, !tbaa !29
  br label %25

25:                                               ; preds = %24, %21
  %26 = load i32, ptr %9, align 4, !tbaa !29
  %27 = load i32, ptr %11, align 4, !tbaa !29
  %28 = xor i32 %27, %26
  store i32 %28, ptr %11, align 4, !tbaa !29
  %29 = load i32, ptr %6, align 4, !tbaa !29
  %30 = load i32, ptr %6, align 4, !tbaa !29
  %31 = sub i32 %30, 1
  %32 = and i32 %29, %31
  %33 = icmp eq i32 %32, 0
  br i1 %33, label %34, label %60

34:                                               ; preds = %25
  call void @llvm.lifetime.start.p0(i64 4, ptr %12) #10
  %35 = load i32, ptr %6, align 4, !tbaa !29
  %36 = zext i32 %35 to i64
  %37 = call i32 @ceil_log2(i64 noundef %36)
  store i32 %37, ptr %12, align 4, !tbaa !29
  %38 = load i32, ptr %7, align 4, !tbaa !29
  %39 = icmp ne i32 %38, 0
  br i1 %39, label %40, label %54

40:                                               ; preds = %34
  %41 = load i32, ptr %11, align 4, !tbaa !29
  %42 = icmp ne i32 %41, 0
  br i1 %42, label %43, label %49

43:                                               ; preds = %40
  %44 = load i32, ptr %12, align 4, !tbaa !29
  %45 = sub i32 %44, 1
  %46 = sext i32 %45 to i64
  %47 = load i64, ptr %10, align 8, !tbaa !27
  %48 = add i64 %47, %46
  store i64 %48, ptr %10, align 8, !tbaa !27
  br label %49

49:                                               ; preds = %43, %40
  %50 = load i64, ptr %10, align 8, !tbaa !27
  %51 = load i32, ptr %12, align 4, !tbaa !29
  %52 = sext i32 %51 to i64
  %53 = udiv i64 %50, %52
  store i64 %53, ptr %10, align 8, !tbaa !27
  br label %59

54:                                               ; preds = %34
  %55 = load i64, ptr %10, align 8, !tbaa !27
  %56 = load i32, ptr %12, align 4, !tbaa !29
  %57 = sext i32 %56 to i64
  %58 = mul i64 %55, %57
  store i64 %58, ptr %10, align 8, !tbaa !27
  br label %59

59:                                               ; preds = %54, %49
  call void @llvm.lifetime.end.p0(i64 4, ptr %12) #10
  br label %119

60:                                               ; preds = %25
  call void @llvm.lifetime.start.p0(i64 8, ptr %13) #10
  call void @llvm.lifetime.start.p0(i64 8, ptr %14) #10
  call void @llvm.lifetime.start.p0(i64 8, ptr %15) #10
  call void @llvm.lifetime.start.p0(i64 16, ptr %16) #10
  %61 = load i32, ptr %7, align 4, !tbaa !29
  %62 = icmp ne i32 %61, 0
  br i1 %62, label %63, label %100

63:                                               ; preds = %60
  %64 = load i32, ptr %6, align 4, !tbaa !29
  %65 = sub i32 %64, 2
  %66 = zext i32 %65 to i64
  %67 = getelementptr inbounds nuw [35 x [3 x i32]], ptr @inv_log2_radix, i64 0, i64 %66
  %68 = getelementptr inbounds [3 x i32], ptr %67, i64 0, i64 0
  store ptr %68, ptr %13, align 8, !tbaa !74
  %69 = load ptr, ptr %13, align 8, !tbaa !74
  %70 = getelementptr inbounds i32, ptr %69, i64 0
  %71 = load i32, ptr %70, align 4, !tbaa !29
  %72 = zext i32 %71 to i64
  %73 = shl i64 %72, 32
  %74 = load ptr, ptr %13, align 8, !tbaa !74
  %75 = getelementptr inbounds i32, ptr %74, i64 1
  %76 = load i32, ptr %75, align 4, !tbaa !29
  %77 = zext i32 %76 to i64
  %78 = or i64 %73, %77
  store i64 %78, ptr %15, align 8, !tbaa !27
  %79 = load ptr, ptr %13, align 8, !tbaa !74
  %80 = getelementptr inbounds i32, ptr %79, i64 2
  %81 = load i32, ptr %80, align 4, !tbaa !29
  %82 = zext i32 %81 to i64
  %83 = shl i64 %82, 32
  store i64 %83, ptr %14, align 8, !tbaa !27
  %84 = load i64, ptr %14, align 8, !tbaa !27
  %85 = zext i64 %84 to i128
  %86 = load i64, ptr %10, align 8, !tbaa !27
  %87 = zext i64 %86 to i128
  %88 = mul i128 %85, %87
  store i128 %88, ptr %16, align 16, !tbaa !58
  %89 = load i64, ptr %15, align 8, !tbaa !27
  %90 = zext i64 %89 to i128
  %91 = load i64, ptr %10, align 8, !tbaa !27
  %92 = zext i64 %91 to i128
  %93 = mul i128 %90, %92
  %94 = load i128, ptr %16, align 16, !tbaa !58
  %95 = lshr i128 %94, 64
  %96 = add i128 %93, %95
  store i128 %96, ptr %16, align 16, !tbaa !58
  %97 = load i128, ptr %16, align 16, !tbaa !58
  %98 = lshr i128 %97, 63
  %99 = trunc i128 %98 to i64
  store i64 %99, ptr %10, align 8, !tbaa !27
  br label %114

100:                                              ; preds = %60
  %101 = load i32, ptr %6, align 4, !tbaa !29
  %102 = sub i32 %101, 2
  %103 = zext i32 %102 to i64
  %104 = getelementptr inbounds nuw [35 x i64], ptr @log2_radix, i64 0, i64 %103
  %105 = load i64, ptr %104, align 8, !tbaa !27
  store i64 %105, ptr %14, align 8, !tbaa !27
  %106 = load i64, ptr %14, align 8, !tbaa !27
  %107 = zext i64 %106 to i128
  %108 = load i64, ptr %10, align 8, !tbaa !27
  %109 = zext i64 %108 to i128
  %110 = mul i128 %107, %109
  store i128 %110, ptr %16, align 16, !tbaa !58
  %111 = load i128, ptr %16, align 16, !tbaa !58
  %112 = lshr i128 %111, 61
  %113 = trunc i128 %112 to i64
  store i64 %113, ptr %10, align 8, !tbaa !27
  br label %114

114:                                              ; preds = %100, %63
  %115 = load i32, ptr %11, align 4, !tbaa !29
  %116 = sext i32 %115 to i64
  %117 = load i64, ptr %10, align 8, !tbaa !27
  %118 = add i64 %117, %116
  store i64 %118, ptr %10, align 8, !tbaa !27
  call void @llvm.lifetime.end.p0(i64 16, ptr %16) #10
  call void @llvm.lifetime.end.p0(i64 8, ptr %15) #10
  call void @llvm.lifetime.end.p0(i64 8, ptr %14) #10
  call void @llvm.lifetime.end.p0(i64 8, ptr %13) #10
  br label %119

119:                                              ; preds = %114, %59
  %120 = load i32, ptr %9, align 4, !tbaa !29
  %121 = icmp ne i32 %120, 0
  br i1 %121, label %122, label %125

122:                                              ; preds = %119
  %123 = load i64, ptr %10, align 8, !tbaa !27
  %124 = sub i64 0, %123
  store i64 %124, ptr %10, align 8, !tbaa !27
  br label %125

125:                                              ; preds = %122, %119
  %126 = load i64, ptr %10, align 8, !tbaa !27
  call void @llvm.lifetime.end.p0(i64 4, ptr %11) #10
  call void @llvm.lifetime.end.p0(i64 8, ptr %10) #10
  call void @llvm.lifetime.end.p0(i64 4, ptr %9) #10
  ret i64 %126
}