; Function Attrs: mustprogress nofree norecurse nosync nounwind willreturn memory(none) uwtable
define dso_local i64 @bf_mul_log2_radix(i64 noundef %0, i32 noundef %1, i32 noundef %2, i32 noundef %3) local_unnamed_addr #10 {
  %.036 = tail call i64 @llvm.abs.i64(i64 %0, i1 false)
  %.lobit = lshr i64 %0, 63
  %.0 = trunc nuw nsw i64 %.lobit to i32
  %5 = xor i32 %3, %.0
  %6 = tail call range(i32 0, 33) i32 @llvm.ctpop.i32(i32 %1)
  %7 = icmp samesign ult i32 %6, 2
  br i1 %7, label %8, label %24

8:                                                ; preds = %4
  %9 = icmp ult i32 %1, 2
  br i1 %9, label %ceil_log2.exit, label %10

10:                                               ; preds = %8
  %11 = zext i32 %1 to i64
  %12 = add nsw i64 %11, -1
  %13 = tail call range(i64 0, 65) i64 @llvm.ctlz.i64(i64 range(i64 1, 0) %12, i1 false)
  %14 = trunc nuw nsw i64 %13 to i32
  %15 = sub nuw nsw i32 64, %14
  br label %ceil_log2.exit

ceil_log2.exit:                                   ; preds = %8, %10
  %.0.i = phi i32 [ %15, %10 ], [ 0, %8 ]
  %.not39 = icmp eq i32 %2, 0
  br i1 %.not39, label %21, label %16

16:                                               ; preds = %ceil_log2.exit
  %.not40 = icmp eq i32 %3, %.0
  %17 = add nsw i32 %.0.i, -1
  %narrow = select i1 %.not40, i32 0, i32 %17
  %18 = sext i32 %narrow to i64
  %.1 = add i64 %.036, %18
  %19 = zext nneg i32 %.0.i to i64
  %20 = udiv i64 %.1, %19
  br label %58

21:                                               ; preds = %ceil_log2.exit
  %22 = zext nneg i32 %.0.i to i64
  %23 = mul i64 %.036, %22
  br label %58

24:                                               ; preds = %4
  %.not = icmp eq i32 %2, 0
  %25 = add i32 %1, -2
  %26 = zext i32 %25 to i64
  br i1 %.not, label %48, label %27

27:                                               ; preds = %24
  %28 = getelementptr inbounds nuw [35 x [3 x i32]], ptr @inv_log2_radix, i64 0, i64 %26
  %29 = load i32, ptr %28, align 4, !tbaa !36
  %30 = zext i32 %29 to i64
  %31 = shl nuw i64 %30, 32
  %32 = getelementptr inbounds nuw i8, ptr %28, i64 4
  %33 = load i32, ptr %32, align 4, !tbaa !36
  %34 = zext i32 %33 to i64
  %35 = or disjoint i64 %31, %34
  %36 = getelementptr inbounds nuw i8, ptr %28, i64 8
  %37 = load i32, ptr %36, align 4, !tbaa !36
  %38 = zext i32 %37 to i64
  %39 = shl nuw i64 %38, 32
  %40 = zext i64 %39 to i128
  %41 = zext i64 %.036 to i128
  %42 = mul nuw nsw i128 %40, %41
  %43 = zext i64 %35 to i128
  %44 = mul nuw nsw i128 %43, %41
  %45 = lshr i128 %42, 64
  %46 = add nuw nsw i128 %45, %44
  %47 = lshr i128 %46, 63
  %extract.t44 = trunc nuw i128 %47 to i64
  br label %55

48:                                               ; preds = %24
  %49 = getelementptr inbounds nuw [35 x i64], ptr @log2_radix, i64 0, i64 %26
  %50 = load i64, ptr %49, align 8, !tbaa !33
  %51 = zext i64 %50 to i128
  %52 = zext i64 %.036 to i128
  %53 = mul nuw nsw i128 %51, %52
  %54 = lshr i128 %53, 61
  %extract.t43 = trunc i128 %54 to i64
  br label %55

55:                                               ; preds = %48, %27
  %.sink.off0 = phi i64 [ %extract.t43, %48 ], [ %extract.t44, %27 ]
  %56 = sext i32 %5 to i64
  %57 = add i64 %.sink.off0, %56
  br label %58

58:                                               ; preds = %16, %21, %55
  %.3 = phi i64 [ %57, %55 ], [ %20, %16 ], [ %23, %21 ]
  %59 = icmp slt i64 %0, 0
  %60 = sub i64 0, %.3
  %spec.select = select i1 %59, i64 %60, i64 %.3
  ret i64 %spec.select
}